; Function Attrs: mustprogress nofree norecurse nosync nounwind willreturn memory(read, inaccessiblemem: none) uwtable
define dso_local noundef zeroext i1 @_ZNK8Variable13has_field_varEPKS_(ptr noundef nonnull readonly align 8 captures(address) dereferenceable(200) %0, ptr noundef readonly captures(address) %1) local_unnamed_addr #9 align 2 {
  %3 = getelementptr inbounds nuw i8, ptr %0, i64 64
  %4 = load ptr, ptr %3, align 8, !tbaa !39
  %5 = load i32, ptr %4, align 8, !tbaa !57
  %6 = and i32 %5, -2
  %spec.select.i = icmp eq i32 %6, 2
  br i1 %spec.select.i, label %.preheader, label %11

.preheader:                                       ; preds = %2
  %.not9 = icmp ne ptr %1, null
  %7 = icmp ne ptr %1, %0
  %or.cond.not10 = and i1 %7, %.not9
  br i1 %or.cond.not10, label %.lr.ph, label %._crit_edge

.lr.ph:                                           ; preds = %.preheader, %.lr.ph
  %.0611 = phi ptr [ %9, %.lr.ph ], [ %1, %.preheader ]
  %8 = getelementptr inbounds nuw i8, ptr %.0611, i64 88
  %9 = load ptr, ptr %8, align 8, !tbaa !80
  %.not = icmp ne ptr %9, null
  %10 = icmp ne ptr %9, %0
  %or.cond.not = and i1 %10, %.not
  br i1 %or.cond.not, label %.lr.ph, label %._crit_edge, !llvm.loop !81

._crit_edge:                                      ; preds = %.lr.ph, %.preheader
  %.not.lcssa = phi i1 [ %.not9, %.preheader ], [ %.not, %.lr.ph ]
  br i1 %.not.lcssa, label %12, label %11

11:                                               ; preds = %._crit_edge, %2
  br label %12

12:                                               ; preds = %._crit_edge, %11
  %.1 = phi i1 [ true, %._crit_edge ], [ false, %11 ]
  ret i1 %.1
}